target datalayout = "e-m:e-p270:32:32-p271:32:32-p272:64:64-i64:64-i128:128-f80:128-n8:16:32:64-S128"
target triple = "x86_64-pc-linux-gnu"

%struct.PageHeaderData = type { %struct.PageXLogRecPtr, i16, i16, i16, i16, i16, i16, i32, [0 x %struct.ItemIdData] }
%struct.PageXLogRecPtr = type { i32, i32 }
%struct.ItemIdData = type { i32 }
%struct.HashPageOpaqueData = type { i32, i32, i32, i16, i16 }
%struct.IndexTupleData = type { %struct.ItemPointerData, i16 }
%struct.ItemPointerData = type { %struct.BlockIdData, i16 }
%struct.BlockIdData = type { i16, i16 }
%struct.IndexScanDescData = type { ptr, ptr, ptr, i32, i32, ptr, ptr, i8, i8, i8, i8, i8, ptr, ptr, ptr, ptr, ptr, %struct.ItemPointerData, i8, ptr, i8, ptr, ptr, i8, ptr }
%struct.HashScanOpaqueData = type { i32, i32, i32, i8, i8, ptr, i32, %struct.HashScanPosData }
%struct.HashScanPosData = type { i32, i32, i32, i32, i32, i32, i32, [408 x %struct.HashScanPosItem] }
%struct.HashScanPosItem = type { %struct.ItemPointerData, i16 }

@LocalBufferBlockPointers = external global ptr, align 8
@BufferBlocks = external global ptr, align 8

; Function Attrs: inlinehint nounwind uwtable
define internal ptr @BufferGetBlock(i32 noundef %0) #3 {
  %2 = alloca ptr, align 8
  %3 = alloca i32, align 4
  store i32 %0, ptr %3, align 4
  %4 = load i32, ptr %3, align 4
  %5 = icmp slt i32 %4, 0
  br i1 %5, label %6, label %14

6:                                                ; preds = %1
  %7 = load ptr, ptr @LocalBufferBlockPointers, align 8
  %8 = load i32, ptr %3, align 4
  %9 = sub i32 0, %8
  %10 = sub i32 %9, 1
  %11 = sext i32 %10 to i64
  %12 = getelementptr inbounds ptr, ptr %7, i64 %11
  %13 = load ptr, ptr %12, align 8
  store ptr %13, ptr %2, align 8
  br label %21

14:                                               ; preds = %1
  %15 = load ptr, ptr @BufferBlocks, align 8
  %16 = load i32, ptr %3, align 4
  %17 = sub i32 %16, 1
  %18 = sext i32 %17 to i64
  %19 = mul i64 %18, 8192
  %20 = getelementptr inbounds nuw i8, ptr %15, i64 %19
  store ptr %20, ptr %2, align 8
  br label %21

21:                                               ; preds = %14, %6
  %22 = load ptr, ptr %2, align 8
  ret ptr %22
}

; Function Attrs: inlinehint nounwind uwtable
define internal ptr @PageGetItem(ptr noundef %0, ptr noundef %1) #3 {
  %3 = alloca ptr, align 8
  %4 = alloca ptr, align 8
  store ptr %0, ptr %3, align 8
  store ptr %1, ptr %4, align 8
  %5 = load ptr, ptr %3, align 8
  %6 = load ptr, ptr %4, align 8
  %7 = load i32, ptr %6, align 4
  %8 = and i32 %7, 32767
  %9 = sext i32 %8 to i64
  %10 = getelementptr inbounds i8, ptr %5, i64 %9
  ret ptr %10
}

; Function Attrs: inlinehint nounwind uwtable
define internal ptr @PageGetItemId(ptr noundef %0, i16 noundef zeroext %1) #3 {
  %3 = alloca ptr, align 8
  %4 = alloca i16, align 2
  store ptr %0, ptr %3, align 8
  store i16 %1, ptr %4, align 2
  %5 = load ptr, ptr %3, align 8
  %6 = getelementptr inbounds nuw %struct.PageHeaderData, ptr %5, i32 0, i32 8
  %7 = load i16, ptr %4, align 2
  %8 = zext i16 %7 to i32
  %9 = sub i32 %8, 1
  %10 = sext i32 %9 to i64
  %11 = getelementptr inbounds [0 x %struct.ItemIdData], ptr %6, i64 0, i64 %10
  ret ptr %11
}

; Function Attrs: inlinehint nounwind uwtable
define internal zeroext i16 @PageGetMaxOffsetNumber(ptr noundef %0) #3 {
  %2 = alloca i16, align 2
  %3 = alloca ptr, align 8
  %4 = alloca ptr, align 8
  %5 = alloca i32, align 4
  store ptr %0, ptr %3, align 8
  call void @llvm.lifetime.start.p0(i64 8, ptr %4) #6
  %6 = load ptr, ptr %3, align 8
  store ptr %6, ptr %4, align 8
  %7 = load ptr, ptr %4, align 8
  %8 = getelementptr inbounds nuw %struct.PageHeaderData, ptr %7, i32 0, i32 3
  %9 = load i16, ptr %8, align 4
  %10 = zext i16 %9 to i64
  %11 = icmp ule i64 %10, 24
  br i1 %11, label %12, label %13

12:                                               ; preds = %1
  store i16 0, ptr %2, align 2
  store i32 1, ptr %5, align 4
  br label %21

13:                                               ; preds = %1
  %14 = load ptr, ptr %4, align 8
  %15 = getelementptr inbounds nuw %struct.PageHeaderData, ptr %14, i32 0, i32 3
  %16 = load i16, ptr %15, align 4
  %17 = zext i16 %16 to i64
  %18 = sub i64 %17, 24
  %19 = udiv i64 %18, 4
  %20 = trunc i64 %19 to i16
  store i16 %20, ptr %2, align 2
  store i32 1, ptr %5, align 4
  br label %21

21:                                               ; preds = %13, %12
  call void @llvm.lifetime.end.p0(i64 8, ptr %4) #6
  %22 = load i16, ptr %2, align 2
  ret i16 %22
}

; Function Attrs: inlinehint nounwind uwtable
define internal void @PageValidateSpecialPointer(ptr noundef %0) #3 {
  %2 = alloca ptr, align 8
  store ptr %0, ptr %2, align 8
  ret void
}

; Function Attrs: inlinehint nounwind uwtable
define internal ptr @BufferGetPage(i32 noundef %0) #3 {
  %2 = alloca i32, align 4
  store i32 %0, ptr %2, align 4
  %3 = load i32, ptr %2, align 4
  %4 = call ptr @BufferGetBlock(i32 noundef %3)
  ret ptr %4
}

; Function Attrs: inlinehint nounwind uwtable
define internal zeroext i1 @BufferIsValid(i32 noundef %0) #3 {
  %2 = alloca i32, align 4
  store i32 %0, ptr %2, align 4
  %3 = load i32, ptr %2, align 4
  %4 = icmp ne i32 %3, 0
  ret i1 %4
}

; Function Attrs: nounwind uwtable
define dso_local void @_hash_kill_items(ptr noundef %0) #0 {
  %2 = alloca ptr, align 8
  %3 = alloca ptr, align 8
  %4 = alloca ptr, align 8
  %5 = alloca i32, align 4
  %6 = alloca i32, align 4
  %7 = alloca ptr, align 8
  %8 = alloca ptr, align 8
  %9 = alloca i16, align 2
  %10 = alloca i16, align 2
  %11 = alloca i32, align 4
  %12 = alloca i32, align 4
  %13 = alloca i8, align 1
  %14 = alloca i8, align 1
  %15 = alloca i32, align 4
  %16 = alloca ptr, align 8
  %17 = alloca ptr, align 8
  %18 = alloca ptr, align 8
  %19 = alloca i32, align 4
  store ptr %0, ptr %2, align 8
  call void @llvm.lifetime.start.p0(i64 8, ptr %3) #6
  %20 = load ptr, ptr %2, align 8
  %21 = getelementptr inbounds nuw %struct.IndexScanDescData, ptr %20, i32 0, i32 12
  %22 = load ptr, ptr %21, align 8
  store ptr %22, ptr %3, align 8
  call void @llvm.lifetime.start.p0(i64 8, ptr %4) #6
  %23 = load ptr, ptr %2, align 8
  %24 = getelementptr inbounds nuw %struct.IndexScanDescData, ptr %23, i32 0, i32 1
  %25 = load ptr, ptr %24, align 8
  store ptr %25, ptr %4, align 8
  call void @llvm.lifetime.start.p0(i64 4, ptr %5) #6
  call void @llvm.lifetime.start.p0(i64 4, ptr %6) #6
  call void @llvm.lifetime.start.p0(i64 8, ptr %7) #6
  call void @llvm.lifetime.start.p0(i64 8, ptr %8) #6
  call void @llvm.lifetime.start.p0(i64 2, ptr %9) #6
  call void @llvm.lifetime.start.p0(i64 2, ptr %10) #6
  call void @llvm.lifetime.start.p0(i64 4, ptr %11) #6
  %26 = load ptr, ptr %3, align 8
  %27 = getelementptr inbounds nuw %struct.HashScanOpaqueData, ptr %26, i32 0, i32 6
  %28 = load i32, ptr %27, align 8
  store i32 %28, ptr %11, align 4
  call void @llvm.lifetime.start.p0(i64 4, ptr %12) #6
  call void @llvm.lifetime.start.p0(i64 1, ptr %13) #6
  store i8 0, ptr %13, align 1
  call void @llvm.lifetime.start.p0(i64 1, ptr %14) #6
  store i8 0, ptr %14, align 1
  %29 = load ptr, ptr %3, align 8
  %30 = getelementptr inbounds nuw %struct.HashScanOpaqueData, ptr %29, i32 0, i32 6
  store i32 0, ptr %30, align 8
  %31 = load ptr, ptr %3, align 8
  %32 = getelementptr inbounds nuw %struct.HashScanOpaqueData, ptr %31, i32 0, i32 7
  %33 = getelementptr inbounds nuw %struct.HashScanPosData, ptr %32, i32 0, i32 1
  %34 = load i32, ptr %33, align 4
  store i32 %34, ptr %5, align 4
  %35 = load ptr, ptr %3, align 8
  %36 = getelementptr inbounds nuw %struct.HashScanOpaqueData, ptr %35, i32 0, i32 7
  %37 = getelementptr inbounds nuw %struct.HashScanPosData, ptr %36, i32 0, i32 0
  %38 = load i32, ptr %37, align 4
  %39 = call zeroext i1 @BufferIsValid(i32 noundef %38)
  br i1 %39, label %40, label %46

40:                                               ; preds = %1
  store i8 1, ptr %14, align 1
  %41 = load ptr, ptr %3, align 8
  %42 = getelementptr inbounds nuw %struct.HashScanOpaqueData, ptr %41, i32 0, i32 7
  %43 = getelementptr inbounds nuw %struct.HashScanPosData, ptr %42, i32 0, i32 0
  %44 = load i32, ptr %43, align 4
  store i32 %44, ptr %6, align 4
  %45 = load i32, ptr %6, align 4
  call void @LockBuffer(i32 noundef %45, i32 noundef 1)
  br label %50

46:                                               ; preds = %1
  %47 = load ptr, ptr %4, align 8
  %48 = load i32, ptr %5, align 4
  %49 = call i32 @_hash_getbuf(ptr noundef %47, i32 noundef %48, i32 noundef 1, i32 noundef 1)
  store i32 %49, ptr %6, align 4
  br label %50

50:                                               ; preds = %46, %40
  %51 = load i32, ptr %6, align 4
  %52 = call ptr @BufferGetPage(i32 noundef %51)
  store ptr %52, ptr %7, align 8
  %53 = load ptr, ptr %7, align 8
  call void @PageValidateSpecialPointer(ptr noundef %53)
  %54 = load ptr, ptr %7, align 8
  %55 = load ptr, ptr %7, align 8
  %56 = getelementptr inbounds nuw %struct.PageHeaderData, ptr %55, i32 0, i32 5
  %57 = load i16, ptr %56, align 4
  %58 = zext i16 %57 to i32
  %59 = sext i32 %58 to i64
  %60 = getelementptr inbounds i8, ptr %54, i64 %59
  store ptr %60, ptr %8, align 8
  %61 = load ptr, ptr %7, align 8
  %62 = call zeroext i16 @PageGetMaxOffsetNumber(ptr noundef %61)
  store i16 %62, ptr %10, align 2
  store i32 0, ptr %12, align 4
  br label %63

63:                                               ; preds = %116, %50
  %64 = load i32, ptr %12, align 4
  %65 = load i32, ptr %11, align 4
  %66 = icmp slt i32 %64, %65
  br i1 %66, label %67, label %119

67:                                               ; preds = %63
  call void @llvm.lifetime.start.p0(i64 4, ptr %15) #6
  %68 = load ptr, ptr %3, align 8
  %69 = getelementptr inbounds nuw %struct.HashScanOpaqueData, ptr %68, i32 0, i32 5
  %70 = load ptr, ptr %69, align 8
  %71 = load i32, ptr %12, align 4
  %72 = sext i32 %71 to i64
  %73 = getelementptr inbounds i32, ptr %70, i64 %72
  %74 = load i32, ptr %73, align 4
  store i32 %74, ptr %15, align 4
  call void @llvm.lifetime.start.p0(i64 8, ptr %16) #6
  %75 = load ptr, ptr %3, align 8
  %76 = getelementptr inbounds nuw %struct.HashScanOpaqueData, ptr %75, i32 0, i32 7
  %77 = getelementptr inbounds nuw %struct.HashScanPosData, ptr %76, i32 0, i32 7
  %78 = load i32, ptr %15, align 4
  %79 = sext i32 %78 to i64
  %80 = getelementptr inbounds [408 x %struct.HashScanPosItem], ptr %77, i64 0, i64 %79
  store ptr %80, ptr %16, align 8
  %81 = load ptr, ptr %16, align 8
  %82 = getelementptr inbounds nuw %struct.HashScanPosItem, ptr %81, i32 0, i32 1
  %83 = load i16, ptr %82, align 2
  store i16 %83, ptr %9, align 2
  br label %84

84:                                               ; preds = %114, %67
  %85 = load i16, ptr %9, align 2
  %86 = zext i16 %85 to i32
  %87 = load i16, ptr %10, align 2
  %88 = zext i16 %87 to i32
  %89 = icmp sle i32 %86, %88
  br i1 %89, label %90, label %115

90:                                               ; preds = %84
  call void @llvm.lifetime.start.p0(i64 8, ptr %17) #6
  %91 = load ptr, ptr %7, align 8
  %92 = load i16, ptr %9, align 2
  %93 = call ptr @PageGetItemId(ptr noundef %91, i16 noundef zeroext %92)
  store ptr %93, ptr %17, align 8
  call void @llvm.lifetime.start.p0(i64 8, ptr %18) #6
  %94 = load ptr, ptr %7, align 8
  %95 = load ptr, ptr %17, align 8
  %96 = call ptr @PageGetItem(ptr noundef %94, ptr noundef %95)
  store ptr %96, ptr %18, align 8
  %97 = load ptr, ptr %18, align 8
  %98 = getelementptr inbounds nuw %struct.IndexTupleData, ptr %97, i32 0, i32 0
  %99 = load ptr, ptr %16, align 8
  %100 = getelementptr inbounds nuw %struct.HashScanPosItem, ptr %99, i32 0, i32 0
  %101 = call zeroext i1 @ItemPointerEquals(ptr noundef %98, ptr noundef %100)
  br i1 %101, label %102, label %107

102:                                              ; preds = %90
  %103 = load ptr, ptr %17, align 8
  %104 = load i32, ptr %103, align 4
  %105 = and i32 %104, -98305
  %106 = or i32 %105, 98304
  store i32 %106, ptr %103, align 4
  store i8 1, ptr %13, align 1
  store i32 6, ptr %19, align 4
  br label %112

107:                                              ; preds = %90
  %108 = load i16, ptr %9, align 2
  %109 = zext i16 %108 to i32
  %110 = add i32 1, %109
  %111 = trunc i32 %110 to i16
  store i16 %111, ptr %9, align 2
  store i32 0, ptr %19, align 4
  br label %112

112:                                              ; preds = %107, %102
  call void @llvm.lifetime.end.p0(i64 8, ptr %18) #6
  call void @llvm.lifetime.end.p0(i64 8, ptr %17) #6
  %113 = load i32, ptr %19, align 4
  switch i32 %113, label %151 [
    i32 0, label %114
    i32 6, label %115
  ]

114:                                              ; preds = %112
  br label %84, !llvm.loop !9

115:                                              ; preds = %112, %84
  call void @llvm.lifetime.end.p0(i64 8, ptr %16) #6
  call void @llvm.lifetime.end.p0(i64 4, ptr %15) #6
  br label %116

116:                                              ; preds = %115
  %117 = load i32, ptr %12, align 4
  %118 = add i32 %117, 1
  store i32 %118, ptr %12, align 4
  br label %63, !llvm.loop !10

119:                                              ; preds = %63
  %120 = load i8, ptr %13, align 1, !range !4, !noundef !5
  %121 = trunc i8 %120 to i1
  br i1 %121, label %122, label %130

122:                                              ; preds = %119
  %123 = load ptr, ptr %8, align 8
  %124 = getelementptr inbounds nuw %struct.HashPageOpaqueData, ptr %123, i32 0, i32 3
  %125 = load i16, ptr %124, align 4
  %126 = zext i16 %125 to i32
  %127 = or i32 %126, 128
  %128 = trunc i32 %127 to i16
  store i16 %128, ptr %124, align 4
  %129 = load i32, ptr %6, align 4
  call void @MarkBufferDirtyHint(i32 noundef %129, i1 noundef zeroext true)
  br label %130

130:                                              ; preds = %122, %119
  %131 = load ptr, ptr %3, align 8
  %132 = getelementptr inbounds nuw %struct.HashScanOpaqueData, ptr %131, i32 0, i32 1
  %133 = load i32, ptr %132, align 4
  %134 = load ptr, ptr %3, align 8
  %135 = getelementptr inbounds nuw %struct.HashScanOpaqueData, ptr %134, i32 0, i32 7
  %136 = getelementptr inbounds nuw %struct.HashScanPosData, ptr %135, i32 0, i32 0
  %137 = load i32, ptr %136, align 4
  %138 = icmp eq i32 %133, %137
  br i1 %138, label %142, label %139

139:                                              ; preds = %130
  %140 = load i8, ptr %14, align 1, !range !4, !noundef !5
  %141 = trunc i8 %140 to i1
  br i1 %141, label %142, label %147

142:                                              ; preds = %139, %130
  %143 = load ptr, ptr %3, align 8
  %144 = getelementptr inbounds nuw %struct.HashScanOpaqueData, ptr %143, i32 0, i32 7
  %145 = getelementptr inbounds nuw %struct.HashScanPosData, ptr %144, i32 0, i32 0
  %146 = load i32, ptr %145, align 4
  call void @LockBuffer(i32 noundef %146, i32 noundef 0)
  br label %150

147:                                              ; preds = %139
  %148 = load ptr, ptr %4, align 8
  %149 = load i32, ptr %6, align 4
  call void @_hash_relbuf(ptr noundef %148, i32 noundef %149)
  br label %150

150:                                              ; preds = %147, %142
  call void @llvm.lifetime.end.p0(i64 1, ptr %14) #6
  call void @llvm.lifetime.end.p0(i64 1, ptr %13) #6
  call void @llvm.lifetime.end.p0(i64 4, ptr %12) #6
  call void @llvm.lifetime.end.p0(i64 4, ptr %11) #6
  call void @llvm.lifetime.end.p0(i64 2, ptr %10) #6
  call void @llvm.lifetime.end.p0(i64 2, ptr %9) #6
  call void @llvm.lifetime.end.p0(i64 8, ptr %8) #6
  call void @llvm.lifetime.end.p0(i64 8, ptr %7) #6
  call void @llvm.lifetime.end.p0(i64 4, ptr %6) #6
  call void @llvm.lifetime.end.p0(i64 4, ptr %5) #6
  call void @llvm.lifetime.end.p0(i64 8, ptr %4) #6
  call void @llvm.lifetime.end.p0(i64 8, ptr %3) #6
  ret void

151:                                              ; preds = %112
  unreachable
}